target datalayout = "e-m:e-p270:32:32-p271:32:32-p272:64:64-i64:64-i128:128-f80:128-n8:16:32:64-S128"
target triple = "x86_64-pc-linux-gnu"

%struct.ASSCodesCallbacks = type { ptr, ptr, ptr, ptr, ptr, ptr, ptr, ptr, ptr, ptr, ptr, ptr }
%struct.AVCodecContext = type { ptr, i32, i32, ptr, i32, i32, ptr, ptr, ptr, i64, i32, i32, ptr, i32, %struct.AVRational, %struct.AVRational, %struct.AVRational, i32, i32, i32, i32, i32, %struct.AVRational, i32, i32, i32, i32, i32, i32, i32, i32, i32, i32, i32, ptr, ptr, i32, float, float, float, float, float, float, float, float, float, i32, i32, i32, i32, i32, i32, i32, i32, i32, i32, i32, i32, ptr, ptr, ptr, i32, i32, i32, i32, i32, i32, i32, i32, i32, i32, %struct.AVChannelLayout, i32, i32, i32, i32, i32, i32, i32, i32, ptr, i32, i32, i32, float, float, i32, i32, i32, i32, i32, ptr, i64, i64, float, float, i32, i32, ptr, ptr, i32, i32, i32, i32, i32, ptr, ptr, ptr, ptr, i32, i32, [8 x i64], i32, i32, i32, i32, i32, i32, i32, ptr, ptr, i32, i32, i32, i32, i32, i32, i32, i32, i32, i32, ptr, ptr, i32, i32, ptr, ptr, ptr, ptr, i32, i32, i64, i32, i32, i64, ptr, i64, ptr, i32, ptr, i32 }
%struct.AVRational = type { i32, i32 }
%struct.AVChannelLayout = type { i32, i32, %union.anon.0, ptr }
%union.anon.0 = type { i64 }
%struct.TTMLContext = type { ptr, ptr, %struct.AVBPrint }
%struct.AVBPrint = type { ptr, i32, i32, i32, [1 x i8], [1000 x i8] }
%struct.AVSubtitle = type { i16, i32, i32, i32, ptr, i64 }
%struct.AVSubtitleRect = type { i32, i32, i32, i32, i32, [4 x ptr], [4 x i32], i32, i32, ptr, ptr }
%struct.ASSDialog = type { i32, i32, i32, i32, ptr, ptr, i32, i32, i32, ptr, ptr }

@.str.28 = private unnamed_addr constant [35 x i8] c"Only SUBTITLE_ASS type supported.\0A\00", align 1
@.str.29 = private unnamed_addr constant [15 x i8] c"<span region=\22\00", align 1
@.str.30 = private unnamed_addr constant [3 x i8] c"\22>\00", align 1
@ttml_callbacks = internal constant %struct.ASSCodesCallbacks { ptr @ttml_text_cb, ptr @ttml_new_line_cb, ptr null, ptr null, ptr null, ptr null, ptr null, ptr null, ptr null, ptr null, ptr null, ptr null }, align 8
@.str.31 = private unnamed_addr constant [50 x i8] c"Splitting received ASS dialog text %s failed: %s\0A\00", align 1
@.str.32 = private unnamed_addr constant [8 x i8] c"</span>\00", align 1
@.str.33 = private unnamed_addr constant [34 x i8] c"Buffer too small for TTML event.\0A\00", align 1

; Function Attrs: inlinehint nounwind uwtable
define internal i32 @av_bprint_is_complete(ptr noundef %0) #5 {
  %2 = alloca ptr, align 8
  store ptr %0, ptr %2, align 8, !tbaa !70
  %3 = load ptr, ptr %2, align 8, !tbaa !70
  %4 = getelementptr inbounds nuw %struct.AVBPrint, ptr %3, i32 0, i32 1
  %5 = load i32, ptr %4, align 8, !tbaa !80
  %6 = load ptr, ptr %2, align 8, !tbaa !70
  %7 = getelementptr inbounds nuw %struct.AVBPrint, ptr %6, i32 0, i32 2
  %8 = load i32, ptr %7, align 4, !tbaa !81
  %9 = icmp ult i32 %5, %8
  %10 = zext i1 %9 to i32
  ret i32 %10
}

; Function Attrs: inlinehint nounwind uwtable
define internal ptr @av_make_error_string(ptr noundef %0, i64 noundef %1, i32 noundef %2) #5 {
  %4 = alloca ptr, align 8
  %5 = alloca i64, align 8
  %6 = alloca i32, align 4
  store ptr %0, ptr %4, align 8, !tbaa !37
  store i64 %1, ptr %5, align 8, !tbaa !59
  store i32 %2, ptr %6, align 4, !tbaa !30
  %7 = load i32, ptr %6, align 4, !tbaa !30
  %8 = load ptr, ptr %4, align 8, !tbaa !37
  %9 = load i64, ptr %5, align 8, !tbaa !59
  %10 = call i32 @av_strerror(i32 noundef %7, ptr noundef %8, i64 noundef %9)
  %11 = load ptr, ptr %4, align 8, !tbaa !37
  ret ptr %11
}

; Function Attrs: nounwind uwtable
define internal i32 @ttml_encode_frame(ptr noundef %0, ptr noundef %1, i32 noundef %2, ptr noundef %3) #1 {
  %5 = alloca i32, align 4
  %6 = alloca ptr, align 8
  %7 = alloca ptr, align 8
  %8 = alloca i32, align 4
  %9 = alloca ptr, align 8
  %10 = alloca ptr, align 8
  %11 = alloca ptr, align 8
  %12 = alloca i32, align 4
  %13 = alloca ptr, align 8
  %14 = alloca i32, align 4
  %15 = alloca i32, align 4
  %16 = alloca i32, align 4
  %17 = alloca [64 x i8], align 1
  store ptr %0, ptr %6, align 8, !tbaa !4
  store ptr %1, ptr %7, align 8, !tbaa !37
  store i32 %2, ptr %8, align 4, !tbaa !30
  store ptr %3, ptr %9, align 8, !tbaa !38
  call void @llvm.lifetime.start.p0(i64 8, ptr %10) #8
  %18 = load ptr, ptr %6, align 8, !tbaa !4
  %19 = getelementptr inbounds nuw %struct.AVCodecContext, ptr %18, i32 0, i32 6
  %20 = load ptr, ptr %19, align 8, !tbaa !9
  store ptr %20, ptr %10, align 8, !tbaa !29
  call void @llvm.lifetime.start.p0(i64 8, ptr %11) #8
  call void @llvm.lifetime.start.p0(i64 4, ptr %12) #8
  %21 = load ptr, ptr %10, align 8, !tbaa !29
  %22 = getelementptr inbounds nuw %struct.TTMLContext, ptr %21, i32 0, i32 2
  %23 = load ptr, ptr %7, align 8, !tbaa !37
  %24 = load i32, ptr %8, align 4, !tbaa !30
  call void @av_bprint_init_for_buffer(ptr noundef %22, ptr noundef %23, i32 noundef %24)
  store i32 0, ptr %12, align 4, !tbaa !30
  br label %25

25:                                               ; preds = %125, %4
  %26 = load i32, ptr %12, align 4, !tbaa !30
  %27 = load ptr, ptr %9, align 8, !tbaa !38
  %28 = getelementptr inbounds nuw %struct.AVSubtitle, ptr %27, i32 0, i32 3
  %29 = load i32, ptr %28, align 4, !tbaa !40
  %30 = icmp ult i32 %26, %29
  br i1 %30, label %31, label %128

31:                                               ; preds = %25
  call void @llvm.lifetime.start.p0(i64 8, ptr %13) #8
  %32 = load ptr, ptr %9, align 8, !tbaa !38
  %33 = getelementptr inbounds nuw %struct.AVSubtitle, ptr %32, i32 0, i32 4
  %34 = load ptr, ptr %33, align 8, !tbaa !44
  %35 = load i32, ptr %12, align 4, !tbaa !30
  %36 = sext i32 %35 to i64
  %37 = getelementptr inbounds ptr, ptr %34, i64 %36
  %38 = load ptr, ptr %37, align 8, !tbaa !45
  %39 = getelementptr inbounds nuw %struct.AVSubtitleRect, ptr %38, i32 0, i32 10
  %40 = load ptr, ptr %39, align 8, !tbaa !47
  store ptr %40, ptr %13, align 8, !tbaa !37
  call void @llvm.lifetime.start.p0(i64 4, ptr %14) #8
  %41 = load ptr, ptr %9, align 8, !tbaa !38
  %42 = getelementptr inbounds nuw %struct.AVSubtitle, ptr %41, i32 0, i32 4
  %43 = load ptr, ptr %42, align 8, !tbaa !44
  %44 = load i32, ptr %12, align 4, !tbaa !30
  %45 = sext i32 %44 to i64
  %46 = getelementptr inbounds ptr, ptr %43, i64 %45
  %47 = load ptr, ptr %46, align 8, !tbaa !45
  %48 = getelementptr inbounds nuw %struct.AVSubtitleRect, ptr %47, i32 0, i32 8
  %49 = load i32, ptr %48, align 4, !tbaa !49
  %50 = icmp ne i32 %49, 3
  br i1 %50, label %51, label %53

51:                                               ; preds = %31
  %52 = load ptr, ptr %6, align 8, !tbaa !4
  call void (ptr, i32, ptr, ...) @av_log(ptr noundef %52, i32 noundef 16, ptr noundef @.str.28)
  store i32 -22, ptr %5, align 4
  store i32 1, ptr %15, align 4
  br label %122

53:                                               ; preds = %31
  %54 = load ptr, ptr %10, align 8, !tbaa !29
  %55 = getelementptr inbounds nuw %struct.TTMLContext, ptr %54, i32 0, i32 1
  %56 = load ptr, ptr %55, align 8, !tbaa !36
  %57 = load ptr, ptr %13, align 8, !tbaa !37
  %58 = call ptr @ff_ass_split_dialog(ptr noundef %56, ptr noundef %57)
  store ptr %58, ptr %11, align 8, !tbaa !29
  %59 = load ptr, ptr %11, align 8, !tbaa !29
  %60 = icmp ne ptr %59, null
  br i1 %60, label %62, label %61

61:                                               ; preds = %53
  store i32 -12, ptr %5, align 4
  store i32 1, ptr %15, align 4
  br label %122

62:                                               ; preds = %53
  %63 = load ptr, ptr %11, align 8, !tbaa !29
  %64 = getelementptr inbounds nuw %struct.ASSDialog, ptr %63, i32 0, i32 4
  %65 = load ptr, ptr %64, align 8, !tbaa !50
  %66 = icmp ne ptr %65, null
  br i1 %66, label %67, label %77

67:                                               ; preds = %62
  %68 = load ptr, ptr %10, align 8, !tbaa !29
  %69 = getelementptr inbounds nuw %struct.TTMLContext, ptr %68, i32 0, i32 2
  call void (ptr, ptr, ...) @av_bprintf(ptr noundef %69, ptr noundef @.str.29)
  %70 = load ptr, ptr %10, align 8, !tbaa !29
  %71 = getelementptr inbounds nuw %struct.TTMLContext, ptr %70, i32 0, i32 2
  %72 = load ptr, ptr %11, align 8, !tbaa !29
  %73 = getelementptr inbounds nuw %struct.ASSDialog, ptr %72, i32 0, i32 4
  %74 = load ptr, ptr %73, align 8, !tbaa !50
  call void @av_bprint_escape(ptr noundef %71, ptr noundef %74, ptr noundef null, i32 noundef 3, i32 noundef 8)
  %75 = load ptr, ptr %10, align 8, !tbaa !29
  %76 = getelementptr inbounds nuw %struct.TTMLContext, ptr %75, i32 0, i32 2
  call void (ptr, ptr, ...) @av_bprintf(ptr noundef %76, ptr noundef @.str.30)
  br label %77

77:                                               ; preds = %67, %62
  %78 = load ptr, ptr %10, align 8, !tbaa !29
  %79 = load ptr, ptr %11, align 8, !tbaa !29
  %80 = getelementptr inbounds nuw %struct.ASSDialog, ptr %79, i32 0, i32 10
  %81 = load ptr, ptr %80, align 8, !tbaa !52
  %82 = call i32 @ff_ass_split_override_codes(ptr noundef @ttml_callbacks, ptr noundef %78, ptr noundef %81)
  store i32 %82, ptr %14, align 4, !tbaa !30
  %83 = load i32, ptr %14, align 4, !tbaa !30
  %84 = icmp slt i32 %83, 0
  br i1 %84, label %85, label %113

85:                                               ; preds = %77
  call void @llvm.lifetime.start.p0(i64 4, ptr %16) #8
  %86 = load i32, ptr %14, align 4, !tbaa !30
  %87 = icmp ne i32 %86, -1094995529
  br i1 %87, label %94, label %88

88:                                               ; preds = %85
  %89 = load ptr, ptr %6, align 8, !tbaa !4
  %90 = getelementptr inbounds nuw %struct.AVCodecContext, ptr %89, i32 0, i32 104
  %91 = load i32, ptr %90, align 8, !tbaa !53
  %92 = and i32 %91, 8
  %93 = icmp ne i32 %92, 0
  br label %94

94:                                               ; preds = %88, %85
  %95 = phi i1 [ true, %85 ], [ %93, %88 ]
  %96 = select i1 %95, i32 16, i32 24
  store i32 %96, ptr %16, align 4, !tbaa !30
  %97 = load ptr, ptr %6, align 8, !tbaa !4
  %98 = load i32, ptr %16, align 4, !tbaa !30
  %99 = load ptr, ptr %11, align 8, !tbaa !29
  %100 = getelementptr inbounds nuw %struct.ASSDialog, ptr %99, i32 0, i32 10
  %101 = load ptr, ptr %100, align 8, !tbaa !52
  call void @llvm.memset.p0.i64(ptr align 1 %17, i8 0, i64 64, i1 false)
  %102 = getelementptr inbounds [64 x i8], ptr %17, i64 0, i64 0
  %103 = load i32, ptr %14, align 4, !tbaa !30
  %104 = call ptr @av_make_error_string(ptr noundef %102, i64 noundef 64, i32 noundef %103)
  call void (ptr, i32, ptr, ...) @av_log(ptr noundef %97, i32 noundef %98, ptr noundef @.str.31, ptr noundef %101, ptr noundef %104)
  %105 = load i32, ptr %16, align 4, !tbaa !30
  %106 = icmp eq i32 %105, 16
  br i1 %106, label %107, label %109

107:                                              ; preds = %94
  call void @ff_ass_free_dialog(ptr noundef %11)
  %108 = load i32, ptr %14, align 4, !tbaa !30
  store i32 %108, ptr %5, align 4
  store i32 1, ptr %15, align 4
  br label %110

109:                                              ; preds = %94
  store i32 0, ptr %15, align 4
  br label %110

110:                                              ; preds = %109, %107
  call void @llvm.lifetime.end.p0(i64 4, ptr %16) #8
  %111 = load i32, ptr %15, align 4
  switch i32 %111, label %122 [
    i32 0, label %112
  ]

112:                                              ; preds = %110
  br label %113

113:                                              ; preds = %112, %77
  %114 = load ptr, ptr %11, align 8, !tbaa !29
  %115 = getelementptr inbounds nuw %struct.ASSDialog, ptr %114, i32 0, i32 4
  %116 = load ptr, ptr %115, align 8, !tbaa !50
  %117 = icmp ne ptr %116, null
  br i1 %117, label %118, label %121

118:                                              ; preds = %113
  %119 = load ptr, ptr %10, align 8, !tbaa !29
  %120 = getelementptr inbounds nuw %struct.TTMLContext, ptr %119, i32 0, i32 2
  call void (ptr, ptr, ...) @av_bprintf(ptr noundef %120, ptr noundef @.str.32)
  br label %121

121:                                              ; preds = %118, %113
  call void @ff_ass_free_dialog(ptr noundef %11)
  store i32 0, ptr %15, align 4
  br label %122

122:                                              ; preds = %121, %110, %61, %51
  call void @llvm.lifetime.end.p0(i64 4, ptr %14) #8
  call void @llvm.lifetime.end.p0(i64 8, ptr %13) #8
  %123 = load i32, ptr %15, align 4
  switch i32 %123, label %147 [
    i32 0, label %124
  ]

124:                                              ; preds = %122
  br label %125

125:                                              ; preds = %124
  %126 = load i32, ptr %12, align 4, !tbaa !30
  %127 = add nsw i32 %126, 1
  store i32 %127, ptr %12, align 4, !tbaa !30
  br label %25, !llvm.loop !54

128:                                              ; preds = %25
  %129 = load ptr, ptr %10, align 8, !tbaa !29
  %130 = getelementptr inbounds nuw %struct.TTMLContext, ptr %129, i32 0, i32 2
  %131 = getelementptr inbounds nuw %struct.AVBPrint, ptr %130, i32 0, i32 1
  %132 = load i32, ptr %131, align 8, !tbaa !56
  %133 = icmp ne i32 %132, 0
  br i1 %133, label %135, label %134

134:                                              ; preds = %128
  store i32 0, ptr %5, align 4
  store i32 1, ptr %15, align 4
  br label %147

135:                                              ; preds = %128
  %136 = load ptr, ptr %10, align 8, !tbaa !29
  %137 = getelementptr inbounds nuw %struct.TTMLContext, ptr %136, i32 0, i32 2
  %138 = call i32 @av_bprint_is_complete(ptr noundef %137)
  %139 = icmp ne i32 %138, 0
  br i1 %139, label %142, label %140

140:                                              ; preds = %135
  %141 = load ptr, ptr %6, align 8, !tbaa !4
  call void (ptr, i32, ptr, ...) @av_log(ptr noundef %141, i32 noundef 16, ptr noundef @.str.33)
  store i32 -1397118274, ptr %5, align 4
  store i32 1, ptr %15, align 4
  br label %147

142:                                              ; preds = %135
  %143 = load ptr, ptr %10, align 8, !tbaa !29
  %144 = getelementptr inbounds nuw %struct.TTMLContext, ptr %143, i32 0, i32 2
  %145 = getelementptr inbounds nuw %struct.AVBPrint, ptr %144, i32 0, i32 1
  %146 = load i32, ptr %145, align 8, !tbaa !56
  store i32 %146, ptr %5, align 4
  store i32 1, ptr %15, align 4
  br label %147

147:                                              ; preds = %142, %140, %134, %122
  call void @llvm.lifetime.end.p0(i64 4, ptr %12) #8
  call void @llvm.lifetime.end.p0(i64 8, ptr %11) #8
  call void @llvm.lifetime.end.p0(i64 8, ptr %10) #8
  %148 = load i32, ptr %5, align 4
  ret i32 %148
}