; Function Attrs: nounwind uwtable
define internal i32 @ttml_encode_frame(ptr noundef %0, ptr noundef %1, i32 noundef %2, ptr noundef readonly captures(none) %3) #1 {
  %5 = alloca ptr, align 8
  %6 = alloca [64 x i8], align 1
  %7 = getelementptr inbounds nuw i8, ptr %0, i64 32
  %8 = load ptr, ptr %7, align 8, !tbaa !4
  call void @llvm.lifetime.start.p0(i64 8, ptr nonnull %5) #7
  %9 = getelementptr inbounds nuw i8, ptr %8, i64 16
  tail call void @av_bprint_init_for_buffer(ptr noundef nonnull %9, ptr noundef %1, i32 noundef %2) #7
  %10 = getelementptr inbounds nuw i8, ptr %3, i64 12
  %11 = load i32, ptr %10, align 4, !tbaa !46
  %.not57 = icmp eq i32 %11, 0
  br i1 %.not57, label %._crit_edge, label %.lr.ph

.lr.ph:                                           ; preds = %4
  %12 = getelementptr inbounds nuw i8, ptr %3, i64 16
  %13 = getelementptr inbounds nuw i8, ptr %8, i64 8
  %14 = getelementptr inbounds nuw i8, ptr %0, i64 528
  br label %15

15:                                               ; preds = %.lr.ph, %58
  %indvars.iv = phi i64 [ 0, %.lr.ph ], [ %indvars.iv.next, %58 ]
  %16 = load ptr, ptr %12, align 8, !tbaa !50
  %17 = getelementptr inbounds nuw ptr, ptr %16, i64 %indvars.iv
  %18 = load ptr, ptr %17, align 8, !tbaa !51
  %19 = getelementptr inbounds nuw i8, ptr %18, i64 76
  %20 = load i32, ptr %19, align 4, !tbaa !53
  %.not42 = icmp eq i32 %20, 3
  br i1 %.not42, label %22, label %21

21:                                               ; preds = %15
  call void (ptr, i32, ptr, ...) @av_log(ptr noundef %0, i32 noundef 16, ptr noundef nonnull @.str.28) #7
  br label %.thread50

22:                                               ; preds = %15
  %23 = getelementptr inbounds nuw i8, ptr %18, i64 88
  %24 = load ptr, ptr %23, align 8, !tbaa !55
  %25 = load ptr, ptr %13, align 8, !tbaa !33
  %26 = call ptr @ff_ass_split_dialog(ptr noundef %25, ptr noundef %24) #7
  store ptr %26, ptr %5, align 8, !tbaa !56
  %.not43 = icmp eq ptr %26, null
  br i1 %.not43, label %.thread50, label %27

27:                                               ; preds = %22
  %28 = getelementptr inbounds nuw i8, ptr %26, i64 16
  %29 = load ptr, ptr %28, align 8, !tbaa !57
  %.not44 = icmp eq ptr %29, null
  br i1 %.not44, label %34, label %30

30:                                               ; preds = %27
  call void (ptr, ptr, ...) @av_bprintf(ptr noundef nonnull %9, ptr noundef nonnull @.str.29) #7
  %31 = load ptr, ptr %5, align 8, !tbaa !56
  %32 = getelementptr inbounds nuw i8, ptr %31, i64 16
  %33 = load ptr, ptr %32, align 8, !tbaa !57
  call void @av_bprint_escape(ptr noundef nonnull %9, ptr noundef %33, ptr noundef null, i32 noundef 3, i32 noundef 8) #7
  call void (ptr, ptr, ...) @av_bprintf(ptr noundef nonnull %9, ptr noundef nonnull @.str.30) #7
  %.pre = load ptr, ptr %5, align 8, !tbaa !56
  br label %34

34:                                               ; preds = %30, %27
  %35 = phi ptr [ %.pre, %30 ], [ %26, %27 ]
  %36 = getelementptr inbounds nuw i8, ptr %35, i64 56
  %37 = load ptr, ptr %36, align 8, !tbaa !59
  %38 = call i32 @ff_ass_split_override_codes(ptr noundef nonnull @ttml_callbacks, ptr noundef nonnull %8, ptr noundef %37) #7
  %39 = icmp slt i32 %38, 0
  br i1 %39, label %40, label %53

40:                                               ; preds = %34
  %.not45 = icmp eq i32 %38, -1094995529
  br i1 %.not45, label %45, label %.thread

.thread:                                          ; preds = %40
  %41 = load ptr, ptr %5, align 8, !tbaa !56
  %42 = getelementptr inbounds nuw i8, ptr %41, i64 56
  %43 = load ptr, ptr %42, align 8, !tbaa !59
  call void @llvm.memset.p0.i64(ptr noundef nonnull align 1 dereferenceable(64) %6, i8 0, i64 64, i1 false)
  %44 = call i32 @av_strerror(i32 noundef range(i32 -2147483648, 0) %38, ptr noundef nonnull %6, i64 noundef 64) #7
  call void (ptr, i32, ptr, ...) @av_log(ptr noundef %0, i32 noundef 16, ptr noundef nonnull @.str.31, ptr noundef %43, ptr noundef nonnull %6) #7
  br label %.thread48

45:                                               ; preds = %40
  %46 = load i32, ptr %14, align 8, !tbaa !60
  %47 = and i32 %46, 8
  %.not54 = icmp eq i32 %47, 0
  %48 = xor i32 %47, 24
  %49 = load ptr, ptr %5, align 8, !tbaa !56
  %50 = getelementptr inbounds nuw i8, ptr %49, i64 56
  %51 = load ptr, ptr %50, align 8, !tbaa !59
  call void @llvm.memset.p0.i64(ptr noundef nonnull align 1 dereferenceable(64) %6, i8 0, i64 64, i1 false)
  %52 = call i32 @av_strerror(i32 noundef -1094995529, ptr noundef nonnull %6, i64 noundef 64) #7
  call void (ptr, i32, ptr, ...) @av_log(ptr noundef %0, i32 noundef %48, ptr noundef nonnull @.str.31, ptr noundef %51, ptr noundef nonnull %6) #7
  br i1 %.not54, label %53, label %.thread48

.thread48:                                        ; preds = %45, %.thread
  call void @ff_ass_free_dialog(ptr noundef nonnull %5) #7
  br label %.thread50

53:                                               ; preds = %45, %34
  %54 = load ptr, ptr %5, align 8, !tbaa !56
  %55 = getelementptr inbounds nuw i8, ptr %54, i64 16
  %56 = load ptr, ptr %55, align 8, !tbaa !57
  %.not46 = icmp eq ptr %56, null
  br i1 %.not46, label %58, label %57

57:                                               ; preds = %53
  call void (ptr, ptr, ...) @av_bprintf(ptr noundef nonnull %9, ptr noundef nonnull @.str.32) #7
  br label %58

58:                                               ; preds = %57, %53
  call void @ff_ass_free_dialog(ptr noundef nonnull %5) #7
  %indvars.iv.next = add nuw nsw i64 %indvars.iv, 1
  %59 = load i32, ptr %10, align 4, !tbaa !46
  %60 = zext i32 %59 to i64
  %61 = icmp samesign ult i64 %indvars.iv.next, %60
  br i1 %61, label %15, label %._crit_edge, !llvm.loop !61

._crit_edge:                                      ; preds = %58, %4
  %62 = getelementptr i8, ptr %8, i64 24
  %63 = load i32, ptr %62, align 8, !tbaa !62
  %.not = icmp eq i32 %63, 0
  br i1 %.not, label %.thread50, label %64

64:                                               ; preds = %._crit_edge
  %65 = getelementptr i8, ptr %8, i64 28
  %.val47 = load i32, ptr %65, align 4, !tbaa !42
  %.not53 = icmp ult i32 %63, %.val47
  br i1 %.not53, label %.thread50, label %66

66:                                               ; preds = %64
  call void (ptr, i32, ptr, ...) @av_log(ptr noundef %0, i32 noundef 16, ptr noundef nonnull @.str.33) #7
  br label %.thread50

.thread50:                                        ; preds = %22, %.thread48, %21, %64, %._crit_edge, %66
  %.4 = phi i32 [ -1397118274, %66 ], [ 0, %._crit_edge ], [ %63, %64 ], [ %38, %.thread48 ], [ -22, %21 ], [ -12, %22 ]
  call void @llvm.lifetime.end.p0(i64 8, ptr nonnull %5) #7
  ret i32 %.4
}